; Function Attrs: nounwind uwtable
define hidden void @png_set_gAMA_fixed(ptr noalias noundef %0, ptr noalias noundef %1, i32 noundef %2) local_unnamed_addr #2 {
  %4 = icmp eq ptr %0, null
  %5 = icmp eq ptr %1, null
  %or.cond = or i1 %4, %5
  br i1 %or.cond, label %8, label %6

6:                                                ; preds = %3
  %7 = getelementptr inbounds i8, ptr %1, i64 52
  tail call void @png_colorspace_set_gamma(ptr noundef nonnull %0, ptr noundef nonnull %7, i32 noundef %2) #12
  tail call void @png_colorspace_sync_info(ptr noundef nonnull %0, ptr noundef nonnull %1) #12
  br label %8

8:                                                ; preds = %3, %6
  ret void
}